; Function Attrs: nounwind uwtable
define internal fastcc noundef ptr @skip_cond_incl(ptr noundef %tok) unnamed_addr #0 {
entry:
  %0 = load i32, ptr %tok, align 16
  %cmp.not17 = icmp eq i32 %0, 6
  br i1 %cmp.not17, label %while.end, label %while.body

while.body:                                       ; preds = %entry, %while.cond.backedge
  %tok.addr.018 = phi ptr [ %tok.addr.0.be, %while.cond.backedge ], [ %tok, %entry ]
  %at_bol.i = getelementptr inbounds %struct.Token, ptr %tok.addr.018, i64 0, i32 12
  %1 = load i8, ptr %at_bol.i, align 8
  %2 = and i8 %1, 1
  %tobool.not.i = icmp eq i8 %2, 0
  br i1 %tobool.not.i, label %if.end, label %is_hash.exit

is_hash.exit:                                     ; preds = %while.body
  %call.i = tail call zeroext i1 @equal(ptr noundef nonnull %tok.addr.018, ptr noundef nonnull @.str.91) #14
  br i1 %call.i, label %land.lhs.true, label %if.end

land.lhs.true:                                    ; preds = %is_hash.exit
  %next = getelementptr inbounds %struct.Token, ptr %tok.addr.018, i64 0, i32 1
  %3 = load ptr, ptr %next, align 8
  %call1 = tail call zeroext i1 @equal(ptr noundef %3, ptr noundef nonnull @.str.72) #14
  br i1 %call1, label %if.then, label %lor.lhs.false

lor.lhs.false:                                    ; preds = %land.lhs.true
  %4 = load ptr, ptr %next, align 8
  %call3 = tail call zeroext i1 @equal(ptr noundef %4, ptr noundef nonnull @.str.73) #14
  br i1 %call3, label %if.then, label %lor.lhs.false4

lor.lhs.false4:                                   ; preds = %lor.lhs.false
  %5 = load ptr, ptr %next, align 8
  %call6 = tail call zeroext i1 @equal(ptr noundef %5, ptr noundef nonnull @.str.74) #14
  br i1 %call6, label %if.then, label %if.end

if.then:                                          ; preds = %lor.lhs.false4, %lor.lhs.false, %land.lhs.true
  %6 = load ptr, ptr %next, align 8
  %next8 = getelementptr inbounds %struct.Token, ptr %6, i64 0, i32 1
  %7 = load ptr, ptr %next8, align 8
  %call9 = tail call fastcc ptr @skip_cond_incl2(ptr noundef %7)
  br label %while.cond.backedge

while.cond.backedge:                              ; preds = %if.then, %if.end21
  %tok.addr.0.be = phi ptr [ %call9, %if.then ], [ %14, %if.end21 ]
  %8 = load i32, ptr %tok.addr.0.be, align 16
  %cmp.not = icmp eq i32 %8, 6
  br i1 %cmp.not, label %while.end, label %while.body, !llvm.loop !48

if.end:                                           ; preds = %while.body, %lor.lhs.false4, %is_hash.exit
  %9 = load i8, ptr %at_bol.i, align 8
  %10 = and i8 %9, 1
  %tobool.not.i13 = icmp eq i8 %10, 0
  br i1 %tobool.not.i13, label %if.end21, label %is_hash.exit16

is_hash.exit16:                                   ; preds = %if.end
  %call.i15 = tail call zeroext i1 @equal(ptr noundef nonnull %tok.addr.018, ptr noundef nonnull @.str.91) #14
  br i1 %call.i15, label %land.lhs.true11, label %if.end21

land.lhs.true11:                                  ; preds = %is_hash.exit16
  %next12 = getelementptr inbounds %struct.Token, ptr %tok.addr.018, i64 0, i32 1
  %11 = load ptr, ptr %next12, align 8
  %call13 = tail call zeroext i1 @equal(ptr noundef %11, ptr noundef nonnull @.str.75) #14
  br i1 %call13, label %while.end, label %lor.lhs.false14

lor.lhs.false14:                                  ; preds = %land.lhs.true11
  %12 = load ptr, ptr %next12, align 8
  %call16 = tail call zeroext i1 @equal(ptr noundef %12, ptr noundef nonnull @.str.77) #14
  br i1 %call16, label %while.end, label %lor.lhs.false17

lor.lhs.false17:                                  ; preds = %lor.lhs.false14
  %13 = load ptr, ptr %next12, align 8
  %call19 = tail call zeroext i1 @equal(ptr noundef %13, ptr noundef nonnull @.str.79) #14
  br i1 %call19, label %while.end, label %if.end21

if.end21:                                         ; preds = %if.end, %lor.lhs.false17, %is_hash.exit16
  %next22 = getelementptr inbounds %struct.Token, ptr %tok.addr.018, i64 0, i32 1
  %14 = load ptr, ptr %next22, align 8
  br label %while.cond.backedge

while.end:                                        ; preds = %while.cond.backedge, %lor.lhs.false17, %lor.lhs.false14, %land.lhs.true11, %entry
  %tok.addr.0.lcssa = phi ptr [ %tok, %entry ], [ %tok.addr.018, %land.lhs.true11 ], [ %tok.addr.018, %lor.lhs.false14 ], [ %tok.addr.018, %lor.lhs.false17 ], [ %tok.addr.0.be, %while.cond.backedge ]
  ret ptr %tok.addr.0.lcssa
}